target datalayout = "e-m:e-p270:32:32-p271:32:32-p272:64:64-i64:64-i128:128-f80:128-n8:16:32:64-S128"
target triple = "x86_64-pc-linux-gnu"

%struct.AVCodecContext = type { ptr, i32, i32, ptr, i32, i32, ptr, ptr, ptr, i64, i32, i32, ptr, i32, %struct.AVRational, %struct.AVRational, %struct.AVRational, i32, i32, i32, i32, i32, %struct.AVRational, i32, i32, i32, i32, i32, i32, i32, i32, i32, i32, i32, ptr, ptr, i32, float, float, float, float, float, float, float, float, float, i32, i32, i32, i32, i32, i32, i32, i32, i32, i32, i32, i32, ptr, ptr, ptr, i32, i32, i32, i32, i32, i32, i32, i32, i32, i32, %struct.AVChannelLayout, i32, i32, i32, i32, i32, i32, i32, i32, ptr, i32, i32, i32, float, float, i32, i32, i32, i32, i32, ptr, i64, i64, float, float, i32, i32, ptr, ptr, i32, i32, i32, i32, i32, ptr, ptr, ptr, ptr, i32, i32, [8 x i64], i32, i32, i32, i32, i32, i32, i32, ptr, ptr, i32, i32, i32, i32, i32, i32, i32, i32, i32, i32, ptr, ptr, i32, i32, ptr, ptr, ptr, ptr, i32, i32, i64, i32, i32, i64, ptr, i64, ptr, i32, ptr, i32 }
%struct.AVRational = type { i32, i32 }
%struct.AVChannelLayout = type { i32, i32, %union.anon.1, ptr }
%union.anon.1 = type { i64 }
%struct.VAAPIEncodeContext = type { %struct.FFHWBaseEncodeContext, ptr, i32, i32, i32, i32, i32, i32, ptr, ptr, i32, i32, i32, i32, i32, i32, [4 x %struct._VAConfigAttrib], i32, i32, i32, ptr, ptr, [4 x i32], [4 x ptr], [4 x i64], i32, %struct._VAEncMiscParameterRateControl, %struct._VAEncMiscParameterHRD, %struct._VAEncMiscParameterFrameRate, %struct._VAEncMiscParameterBufferMaxFrameSize, %struct._VAEncMiscParameterBufferQualityLevel, ptr, ptr, i32, i32, i32, i32, i32, i32, [20 x i32], [22 x i32], [21 x i32], [23 x i32], i32, i32, ptr, i32, i32 }
%struct.FFHWBaseEncodeContext = type { ptr, ptr, ptr, i32, i32, i32, i32, i32, i32, ptr, ptr, ptr, ptr, ptr, ptr, ptr, ptr, [2 x ptr], i32, i64, i64, i64, i64, i64, i64, i64, [112 x i64], i32, i32, i32, i32, i32, i32, i32, i32, i32, i32, i32, i32, i32, i32, i32, i32, ptr, i32, ptr, i32, ptr }
%struct._VAConfigAttrib = type { i32, i32 }
%struct._VAEncMiscParameterRateControl = type { i32, i32, i32, i32, i32, i32, %union.anon.2, i32, i32, i32, i32, [4 x i32] }
%union.anon.2 = type { %struct.anon }
%struct.anon = type { i32 }
%struct._VAEncMiscParameterHRD = type { i32, i32, [4 x i32] }
%struct._VAEncMiscParameterFrameRate = type { i32, %union.anon.3, [4 x i32] }
%union.anon.3 = type { %struct.anon.4 }
%struct.anon.4 = type { i32 }
%struct._VAEncMiscParameterBufferMaxFrameSize = type { i32, i32, [4 x i32] }
%struct._VAEncMiscParameterBufferQualityLevel = type { i32, [4 x i32] }
%struct.VAAPIEncodeH264Context = type { %struct.VAAPIEncodeContext, %struct.FFHWBaseEncodeH264, i32, i32, i32, i32, i32, i32, i32, i32, i32, i32, i32, i32, ptr, %struct.CodedBitstreamFragment, %struct.H264RawAUD, %struct.H264RawSlice, %struct.H264RawSEIPicTiming, %struct.H264RawSEIRecoveryPoint, %struct.SEIRawUserDataUnregistered, ptr, %struct.SEIRawUserDataRegistered, ptr, i32, i32, i32 }
%struct.FFHWBaseEncodeH264 = type { %struct.H264RawSPS, %struct.H264RawPPS, %struct.H264RawSEIBufferingPeriod, i32 }
%struct.H264RawSPS = type { %struct.H264RawNALUnitHeader, i8, i8, i8, i8, i8, i8, i8, i8, i8, i8, i8, i8, i8, i8, i8, i8, [12 x i8], [6 x %struct.H264RawScalingList], [6 x %struct.H264RawScalingList], i8, i8, i8, i8, i32, i32, i8, [256 x i32], i8, i8, i16, i16, i8, i8, i8, i8, i16, i16, i16, i16, i8, %struct.H264RawVUI }
%struct.H264RawNALUnitHeader = type { i8, i8, i8, i8 }
%struct.H264RawScalingList = type { [64 x i8] }
%struct.H264RawVUI = type { i8, i8, i16, i16, i8, i8, i8, i8, i8, i8, i8, i8, i8, i8, i8, i8, i8, i32, i32, i8, i8, %struct.H264RawHRD, i8, %struct.H264RawHRD, i8, i8, i8, i8, i8, i8, i8, i8, i8, i8 }
%struct.H264RawHRD = type { i8, i8, i8, [32 x i32], [32 x i32], [32 x i8], i8, i8, i8, i8 }
%struct.H264RawPPS = type { %struct.H264RawNALUnitHeader, i8, i8, i8, i8, i8, i8, [8 x i16], [8 x i16], [8 x i16], i8, i16, i16, ptr, ptr, i8, i8, i8, i8, i8, i8, i8, i8, i8, i8, i8, i8, i8, [12 x i8], [6 x %struct.H264RawScalingList], [6 x %struct.H264RawScalingList], i8 }
%struct.H264RawSEIBufferingPeriod = type { i8, %struct.anon.5, %struct.anon.5 }
%struct.anon.5 = type { [32 x i32], [32 x i32] }
%struct.CodedBitstreamFragment = type { ptr, i64, i64, ptr, i32, i32, ptr }
%struct.H264RawAUD = type { %struct.H264RawNALUnitHeader, i8 }
%struct.H264RawSlice = type { %struct.H264RawSliceHeader, ptr, ptr, i64, i32 }
%struct.H264RawSliceHeader = type { %struct.H264RawNALUnitHeader, i32, i8, i8, i8, i16, i8, i8, i16, i16, i32, [2 x i32], i8, i8, i8, i8, i8, i8, i8, [33 x %struct.anon.6], [33 x %struct.anon.6], i8, i8, [32 x i8], [32 x i8], [32 x i8], [32 x i8], [32 x [2 x i8]], [32 x [2 x i8]], [32 x i8], [32 x i8], [32 x i8], [32 x i8], [32 x [2 x i8]], [32 x [2 x i8]], i8, i8, i8, [67 x %struct.anon.7], i8, i8, i8, i8, i8, i8, i8, i16 }
%struct.anon.6 = type { i8, i32, i8 }
%struct.anon.7 = type { i8, i32, i8, i8, i8 }
%struct.H264RawSEIPicTiming = type { i32, i32, i8, [3 x i8], [3 x %struct.H264RawSEIPicTimestamp] }
%struct.H264RawSEIPicTimestamp = type { i8, i8, i8, i8, i8, i8, i8, i8, i8, i8, i8, i8, i8, i32 }
%struct.H264RawSEIRecoveryPoint = type { i16, i8, i8, i8 }
%struct.SEIRawUserDataUnregistered = type { [16 x i8], ptr, i64 }
%struct.SEIRawUserDataRegistered = type { i8, i8, ptr, i64 }

; Function Attrs: cold nounwind optsize uwtable
define internal i32 @vaapi_encode_h264_close(ptr noundef %0) #0 {
  %2 = alloca ptr, align 8
  %3 = alloca ptr, align 8
  store ptr %0, ptr %2, align 8, !tbaa !4
  call void @llvm.lifetime.start.p0(i64 8, ptr %3) #10
  %4 = load ptr, ptr %2, align 8, !tbaa !4
  %5 = getelementptr inbounds nuw %struct.AVCodecContext, ptr %4, i32 0, i32 6
  %6 = load ptr, ptr %5, align 8, !tbaa !9
  store ptr %6, ptr %3, align 8, !tbaa !33
  %7 = load ptr, ptr %3, align 8, !tbaa !33
  %8 = getelementptr inbounds nuw %struct.VAAPIEncodeH264Context, ptr %7, i32 0, i32 15
  call void @ff_cbs_fragment_free(ptr noundef %8)
  %9 = load ptr, ptr %3, align 8, !tbaa !33
  %10 = getelementptr inbounds nuw %struct.VAAPIEncodeH264Context, ptr %9, i32 0, i32 14
  call void @ff_cbs_close(ptr noundef %10)
  %11 = load ptr, ptr %3, align 8, !tbaa !33
  %12 = getelementptr inbounds nuw %struct.VAAPIEncodeH264Context, ptr %11, i32 0, i32 21
  call void @av_freep(ptr noundef %12)
  %13 = load ptr, ptr %3, align 8, !tbaa !33
  %14 = getelementptr inbounds nuw %struct.VAAPIEncodeH264Context, ptr %13, i32 0, i32 23
  call void @av_freep(ptr noundef %14)
  %15 = load ptr, ptr %2, align 8, !tbaa !4
  %16 = call i32 @ff_vaapi_encode_close(ptr noundef %15)
  call void @llvm.lifetime.end.p0(i64 8, ptr %3) #10
  ret i32 %16
}